; Function Attrs: nounwind uwtable
define ptr @l_Lean_Compiler_LCNF_InferType_inferLitValueType___boxed(ptr noundef %0) local_unnamed_addr #0 {
  %2 = ptrtoint ptr %0 to i64
  %3 = and i64 %2, 1
  %.not.i.i = icmp eq i64 %3, 0
  br i1 %.not.i.i, label %7, label %4

4:                                                ; preds = %1
  %5 = lshr i64 %2, 1
  %6 = trunc i64 %5 to i32
  br label %lean_obj_tag.exit.i

7:                                                ; preds = %1
  %8 = getelementptr i8, ptr %0, i64 4
  %.val.i.i = load i32, ptr %8, align 4
  %9 = lshr i32 %.val.i.i, 24
  br label %lean_obj_tag.exit.i

lean_obj_tag.exit.i:                              ; preds = %7, %4
  %.0.i.i = phi i32 [ %6, %4 ], [ %9, %7 ]
  %10 = icmp ult i32 %.0.i.i, 5
  br i1 %10, label %switch.lookup, label %l_Lean_Compiler_LCNF_InferType_inferLitValueType.exit

switch.lookup:                                    ; preds = %lean_obj_tag.exit.i
  %11 = zext nneg i32 %.0.i.i to i64
  %switch.gep = getelementptr inbounds nuw [5 x ptr], ptr @switch.table.l_Lean_Compiler_LCNF_InferType_inferLetValueType, i64 0, i64 %11
  %switch.load = load ptr, ptr %switch.gep, align 8
  br label %l_Lean_Compiler_LCNF_InferType_inferLitValueType.exit

l_Lean_Compiler_LCNF_InferType_inferLitValueType.exit: ; preds = %lean_obj_tag.exit.i, %switch.lookup
  %.0.in.i = phi ptr [ %switch.load, %switch.lookup ], [ @l_Lean_Compiler_LCNF_InferType_inferLitValueType___closed__18, %lean_obj_tag.exit.i ]
  %.0.i = load ptr, ptr %.0.in.i, align 8, !tbaa !10
  br i1 %.not.i.i, label %12, label %lean_dec.exit

12:                                               ; preds = %l_Lean_Compiler_LCNF_InferType_inferLitValueType.exit
  %13 = load i32, ptr %0, align 4, !tbaa !4
  %14 = icmp sgt i32 %13, 1
  br i1 %14, label %15, label %17, !prof !9

15:                                               ; preds = %12
  %16 = add nsw i32 %13, -1
  store i32 %16, ptr %0, align 4, !tbaa !4
  br label %lean_dec.exit

17:                                               ; preds = %12
  %.not.i = icmp eq i32 %13, 0
  br i1 %.not.i, label %lean_dec.exit, label %18

18:                                               ; preds = %17
  tail call void @lean_dec_ref_cold(ptr noundef nonnull %0) #5
  br label %lean_dec.exit

lean_dec.exit:                                    ; preds = %18, %17, %15, %l_Lean_Compiler_LCNF_InferType_inferLitValueType.exit
  ret ptr %.0.i
}